target datalayout = "e-m:e-p270:32:32-p271:32:32-p272:64:64-i64:64-i128:128-f80:128-n8:16:32:64-S128"
target triple = "x86_64-unknown-linux-gnu"

%struct.anon = type { ptr }
%struct.TPMBackend = type { %struct.Object, ptr, i8, i8, ptr, ptr, %struct.anon.0 }
%struct.Object = type { ptr, ptr, ptr, i32, ptr }
%struct.anon.0 = type { ptr, ptr }

@tpm_backends = internal global %struct.anon zeroinitializer, align 8

; Function Attrs: nounwind sspstrong uwtable
define dso_local void @tpm_cleanup() #0 {
entry:
  %drv = alloca ptr, align 8
  %next = alloca ptr, align 8
  %0 = load ptr, ptr @tpm_backends, align 8
  store ptr %0, ptr %drv, align 8
  br label %for.cond

for.cond:                                         ; preds = %for.inc, %entry
  %1 = load ptr, ptr %drv, align 8
  %tobool = icmp ne ptr %1, null
  br i1 %tobool, label %land.rhs, label %land.end

land.rhs:                                         ; preds = %for.cond
  %2 = load ptr, ptr %drv, align 8
  %list = getelementptr inbounds %struct.TPMBackend, ptr %2, i32 0, i32 6
  %le_next = getelementptr inbounds %struct.anon.0, ptr %list, i32 0, i32 0
  %3 = load ptr, ptr %le_next, align 8
  store ptr %3, ptr %next, align 8
  br label %land.end

land.end:                                         ; preds = %land.rhs, %for.cond
  %4 = phi i1 [ false, %for.cond ], [ true, %land.rhs ]
  br i1 %4, label %for.body, label %for.end

for.body:                                         ; preds = %land.end
  br label %do.body

do.body:                                          ; preds = %for.body
  %5 = load ptr, ptr %drv, align 8
  %list1 = getelementptr inbounds %struct.TPMBackend, ptr %5, i32 0, i32 6
  %le_next2 = getelementptr inbounds %struct.anon.0, ptr %list1, i32 0, i32 0
  %6 = load ptr, ptr %le_next2, align 8
  %cmp = icmp ne ptr %6, null
  br i1 %cmp, label %if.then, label %if.end

if.then:                                          ; preds = %do.body
  %7 = load ptr, ptr %drv, align 8
  %list3 = getelementptr inbounds %struct.TPMBackend, ptr %7, i32 0, i32 6
  %le_prev = getelementptr inbounds %struct.anon.0, ptr %list3, i32 0, i32 1
  %8 = load ptr, ptr %le_prev, align 8
  %9 = load ptr, ptr %drv, align 8
  %list4 = getelementptr inbounds %struct.TPMBackend, ptr %9, i32 0, i32 6
  %le_next5 = getelementptr inbounds %struct.anon.0, ptr %list4, i32 0, i32 0
  %10 = load ptr, ptr %le_next5, align 8
  %list6 = getelementptr inbounds %struct.TPMBackend, ptr %10, i32 0, i32 6
  %le_prev7 = getelementptr inbounds %struct.anon.0, ptr %list6, i32 0, i32 1
  store ptr %8, ptr %le_prev7, align 8
  br label %if.end

if.end:                                           ; preds = %if.then, %do.body
  %11 = load ptr, ptr %drv, align 8
  %list8 = getelementptr inbounds %struct.TPMBackend, ptr %11, i32 0, i32 6
  %le_next9 = getelementptr inbounds %struct.anon.0, ptr %list8, i32 0, i32 0
  %12 = load ptr, ptr %le_next9, align 8
  %13 = load ptr, ptr %drv, align 8
  %list10 = getelementptr inbounds %struct.TPMBackend, ptr %13, i32 0, i32 6
  %le_prev11 = getelementptr inbounds %struct.anon.0, ptr %list10, i32 0, i32 1
  %14 = load ptr, ptr %le_prev11, align 8
  store ptr %12, ptr %14, align 8
  %15 = load ptr, ptr %drv, align 8
  %list12 = getelementptr inbounds %struct.TPMBackend, ptr %15, i32 0, i32 6
  %le_next13 = getelementptr inbounds %struct.anon.0, ptr %list12, i32 0, i32 0
  store ptr null, ptr %le_next13, align 8
  %16 = load ptr, ptr %drv, align 8
  %list14 = getelementptr inbounds %struct.TPMBackend, ptr %16, i32 0, i32 6
  %le_prev15 = getelementptr inbounds %struct.anon.0, ptr %list14, i32 0, i32 1
  store ptr null, ptr %le_prev15, align 8
  br label %do.end

do.end:                                           ; preds = %if.end
  %17 = load ptr, ptr %drv, align 8
  call void @object_unref(ptr noundef %17)
  br label %for.inc

for.inc:                                          ; preds = %do.end
  %18 = load ptr, ptr %next, align 8
  store ptr %18, ptr %drv, align 8
  br label %for.cond, !llvm.loop !7

for.end:                                          ; preds = %land.end
  ret void
}