; Function Attrs: nounwind sspstrong uwtable
define dso_local void @tpm_cleanup() local_unnamed_addr #2 {
entry:
  %0 = load ptr, ptr @tpm_backends, align 8
  %tobool.not10 = icmp eq ptr %0, null
  br i1 %tobool.not10, label %for.end, label %land.rhs.preheader

land.rhs.preheader:                               ; preds = %entry
  %list13 = getelementptr inbounds nuw i8, ptr %0, i64 72
  %1 = load ptr, ptr %list13, align 8
  %cmp.not14 = icmp eq ptr %1, null
  %le_prev11.phi.trans.insert15 = getelementptr inbounds nuw i8, ptr %0, i64 80
  %.pre1216 = load ptr, ptr %le_prev11.phi.trans.insert15, align 8
  br i1 %cmp.not14, label %for.end.critedge, label %if.then

if.then:                                          ; preds = %land.rhs.preheader, %if.then
  %.pre1219 = phi ptr [ %.pre12, %if.then ], [ %.pre1216, %land.rhs.preheader ]
  %2 = phi ptr [ %3, %if.then ], [ %1, %land.rhs.preheader ]
  %list18 = phi ptr [ %list, %if.then ], [ %list13, %land.rhs.preheader ]
  %drv.01117 = phi ptr [ %2, %if.then ], [ %0, %land.rhs.preheader ]
  %le_prev7 = getelementptr inbounds nuw i8, ptr %2, i64 80
  store ptr %.pre1219, ptr %le_prev7, align 8
  %.pre = load ptr, ptr %list18, align 8
  store ptr %.pre, ptr %.pre1219, align 8
  tail call void @llvm.memset.p0.i64(ptr noundef nonnull align 8 dereferenceable(16) %list18, i8 0, i64 16, i1 false)
  tail call void @object_unref(ptr noundef nonnull %drv.01117) #7
  %list = getelementptr inbounds nuw i8, ptr %2, i64 72
  %3 = load ptr, ptr %list, align 8
  %cmp.not = icmp eq ptr %3, null
  %le_prev11.phi.trans.insert = getelementptr inbounds nuw i8, ptr %2, i64 80
  %.pre12 = load ptr, ptr %le_prev11.phi.trans.insert, align 8
  br i1 %cmp.not, label %for.end.critedge, label %if.then, !llvm.loop !7

for.end.critedge:                                 ; preds = %if.then, %land.rhs.preheader
  %drv.011.lcssa = phi ptr [ %0, %land.rhs.preheader ], [ %2, %if.then ]
  %list.lcssa = phi ptr [ %list13, %land.rhs.preheader ], [ %list, %if.then ]
  %.pre12.lcssa = phi ptr [ %.pre1216, %land.rhs.preheader ], [ %.pre12, %if.then ]
  store ptr null, ptr %.pre12.lcssa, align 8
  tail call void @llvm.memset.p0.i64(ptr noundef nonnull align 8 dereferenceable(16) %list.lcssa, i8 0, i64 16, i1 false)
  tail call void @object_unref(ptr noundef nonnull %drv.011.lcssa) #7
  br label %for.end

for.end:                                          ; preds = %for.end.critedge, %entry
  ret void
}